; Function Attrs: mustprogress nounwind uwtable
define dso_local noundef nonnull align 8 dereferenceable(48) ptr @_ZN4llvmlsERNS_11raw_ostreamENS_21LegacyLegalizeActions20LegacyLegalizeActionE(ptr noundef nonnull returned align 8 dereferenceable(48) %0, i8 noundef zeroext %1) local_unnamed_addr #0 {
  switch i8 %1, label %_ZN4llvm11raw_ostreamlsEPKc.exit [
    i8 0, label %3
    i8 1, label %17
    i8 2, label %31
    i8 3, label %45
    i8 4, label %59
    i8 5, label %73
    i8 6, label %87
    i8 7, label %101
    i8 8, label %115
    i8 9, label %129
    i8 10, label %143
  ]

3:                                                ; preds = %2
  %4 = getelementptr inbounds nuw i8, ptr %0, i64 24
  %5 = load ptr, ptr %4, align 8
  %6 = getelementptr inbounds nuw i8, ptr %0, i64 32
  %7 = load ptr, ptr %6, align 8
  %8 = ptrtoint ptr %5 to i64
  %9 = ptrtoint ptr %7 to i64
  %10 = sub i64 %8, %9
  %11 = icmp ult i64 %10, 5
  br i1 %11, label %12, label %14

12:                                               ; preds = %3
  %13 = tail call noundef nonnull align 8 dereferenceable(48) ptr @_ZN4llvm11raw_ostream5writeEPKcm(ptr noundef nonnull align 8 dereferenceable(48) %0, ptr noundef nonnull @.str, i64 noundef 5) #16
  br label %_ZN4llvm11raw_ostreamlsEPKc.exit

14:                                               ; preds = %3
  tail call void @llvm.memcpy.p0.p0.i64(ptr noundef nonnull align 1 dereferenceable(5) %7, ptr noundef nonnull align 1 dereferenceable(5) @.str, i64 5, i1 false)
  %15 = load ptr, ptr %6, align 8
  %16 = getelementptr inbounds i8, ptr %15, i64 5
  store ptr %16, ptr %6, align 8
  br label %_ZN4llvm11raw_ostreamlsEPKc.exit

17:                                               ; preds = %2
  %18 = getelementptr inbounds nuw i8, ptr %0, i64 24
  %19 = load ptr, ptr %18, align 8
  %20 = getelementptr inbounds nuw i8, ptr %0, i64 32
  %21 = load ptr, ptr %20, align 8
  %22 = ptrtoint ptr %19 to i64
  %23 = ptrtoint ptr %21 to i64
  %24 = sub i64 %22, %23
  %25 = icmp ult i64 %24, 12
  br i1 %25, label %26, label %28

26:                                               ; preds = %17
  %27 = tail call noundef nonnull align 8 dereferenceable(48) ptr @_ZN4llvm11raw_ostream5writeEPKcm(ptr noundef nonnull align 8 dereferenceable(48) %0, ptr noundef nonnull @.str.1, i64 noundef 12) #16
  br label %_ZN4llvm11raw_ostreamlsEPKc.exit

28:                                               ; preds = %17
  tail call void @llvm.memcpy.p0.p0.i64(ptr noundef nonnull align 1 dereferenceable(12) %21, ptr noundef nonnull align 1 dereferenceable(12) @.str.1, i64 12, i1 false)
  %29 = load ptr, ptr %20, align 8
  %30 = getelementptr inbounds i8, ptr %29, i64 12
  store ptr %30, ptr %20, align 8
  br label %_ZN4llvm11raw_ostreamlsEPKc.exit

31:                                               ; preds = %2
  %32 = getelementptr inbounds nuw i8, ptr %0, i64 24
  %33 = load ptr, ptr %32, align 8
  %34 = getelementptr inbounds nuw i8, ptr %0, i64 32
  %35 = load ptr, ptr %34, align 8
  %36 = ptrtoint ptr %33 to i64
  %37 = ptrtoint ptr %35 to i64
  %38 = sub i64 %36, %37
  %39 = icmp ult i64 %38, 11
  br i1 %39, label %40, label %42

40:                                               ; preds = %31
  %41 = tail call noundef nonnull align 8 dereferenceable(48) ptr @_ZN4llvm11raw_ostream5writeEPKcm(ptr noundef nonnull align 8 dereferenceable(48) %0, ptr noundef nonnull @.str.2, i64 noundef 11) #16
  br label %_ZN4llvm11raw_ostreamlsEPKc.exit

42:                                               ; preds = %31
  tail call void @llvm.memcpy.p0.p0.i64(ptr noundef nonnull align 1 dereferenceable(11) %35, ptr noundef nonnull align 1 dereferenceable(11) @.str.2, i64 11, i1 false)
  %43 = load ptr, ptr %34, align 8
  %44 = getelementptr inbounds i8, ptr %43, i64 11
  store ptr %44, ptr %34, align 8
  br label %_ZN4llvm11raw_ostreamlsEPKc.exit

45:                                               ; preds = %2
  %46 = getelementptr inbounds nuw i8, ptr %0, i64 24
  %47 = load ptr, ptr %46, align 8
  %48 = getelementptr inbounds nuw i8, ptr %0, i64 32
  %49 = load ptr, ptr %48, align 8
  %50 = ptrtoint ptr %47 to i64
  %51 = ptrtoint ptr %49 to i64
  %52 = sub i64 %50, %51
  %53 = icmp ult i64 %52, 13
  br i1 %53, label %54, label %56

54:                                               ; preds = %45
  %55 = tail call noundef nonnull align 8 dereferenceable(48) ptr @_ZN4llvm11raw_ostream5writeEPKcm(ptr noundef nonnull align 8 dereferenceable(48) %0, ptr noundef nonnull @.str.3, i64 noundef 13) #16
  br label %_ZN4llvm11raw_ostreamlsEPKc.exit

56:                                               ; preds = %45
  tail call void @llvm.memcpy.p0.p0.i64(ptr noundef nonnull align 1 dereferenceable(13) %49, ptr noundef nonnull align 1 dereferenceable(13) @.str.3, i64 13, i1 false)
  %57 = load ptr, ptr %48, align 8
  %58 = getelementptr inbounds i8, ptr %57, i64 13
  store ptr %58, ptr %48, align 8
  br label %_ZN4llvm11raw_ostreamlsEPKc.exit

59:                                               ; preds = %2
  %60 = getelementptr inbounds nuw i8, ptr %0, i64 24
  %61 = load ptr, ptr %60, align 8
  %62 = getelementptr inbounds nuw i8, ptr %0, i64 32
  %63 = load ptr, ptr %62, align 8
  %64 = ptrtoint ptr %61 to i64
  %65 = ptrtoint ptr %63 to i64
  %66 = sub i64 %64, %65
  %67 = icmp ult i64 %66, 12
  br i1 %67, label %68, label %70

68:                                               ; preds = %59
  %69 = tail call noundef nonnull align 8 dereferenceable(48) ptr @_ZN4llvm11raw_ostream5writeEPKcm(ptr noundef nonnull align 8 dereferenceable(48) %0, ptr noundef nonnull @.str.4, i64 noundef 12) #16
  br label %_ZN4llvm11raw_ostreamlsEPKc.exit

70:                                               ; preds = %59
  tail call void @llvm.memcpy.p0.p0.i64(ptr noundef nonnull align 1 dereferenceable(12) %63, ptr noundef nonnull align 1 dereferenceable(12) @.str.4, i64 12, i1 false)
  %71 = load ptr, ptr %62, align 8
  %72 = getelementptr inbounds i8, ptr %71, i64 12
  store ptr %72, ptr %62, align 8
  br label %_ZN4llvm11raw_ostreamlsEPKc.exit

73:                                               ; preds = %2
  %74 = getelementptr inbounds nuw i8, ptr %0, i64 24
  %75 = load ptr, ptr %74, align 8
  %76 = getelementptr inbounds nuw i8, ptr %0, i64 32
  %77 = load ptr, ptr %76, align 8
  %78 = ptrtoint ptr %75 to i64
  %79 = ptrtoint ptr %77 to i64
  %80 = sub i64 %78, %79
  %81 = icmp ult i64 %80, 7
  br i1 %81, label %82, label %84

82:                                               ; preds = %73
  %83 = tail call noundef nonnull align 8 dereferenceable(48) ptr @_ZN4llvm11raw_ostream5writeEPKcm(ptr noundef nonnull align 8 dereferenceable(48) %0, ptr noundef nonnull @.str.5, i64 noundef 7) #16
  br label %_ZN4llvm11raw_ostreamlsEPKc.exit

84:                                               ; preds = %73
  tail call void @llvm.memcpy.p0.p0.i64(ptr noundef nonnull align 1 dereferenceable(7) %77, ptr noundef nonnull align 1 dereferenceable(7) @.str.5, i64 7, i1 false)
  %85 = load ptr, ptr %76, align 8
  %86 = getelementptr inbounds i8, ptr %85, i64 7
  store ptr %86, ptr %76, align 8
  br label %_ZN4llvm11raw_ostreamlsEPKc.exit

87:                                               ; preds = %2
  %88 = getelementptr inbounds nuw i8, ptr %0, i64 24
  %89 = load ptr, ptr %88, align 8
  %90 = getelementptr inbounds nuw i8, ptr %0, i64 32
  %91 = load ptr, ptr %90, align 8
  %92 = ptrtoint ptr %89 to i64
  %93 = ptrtoint ptr %91 to i64
  %94 = sub i64 %92, %93
  %95 = icmp ult i64 %94, 5
  br i1 %95, label %96, label %98

96:                                               ; preds = %87
  %97 = tail call noundef nonnull align 8 dereferenceable(48) ptr @_ZN4llvm11raw_ostream5writeEPKcm(ptr noundef nonnull align 8 dereferenceable(48) %0, ptr noundef nonnull @.str.6, i64 noundef 5) #16
  br label %_ZN4llvm11raw_ostreamlsEPKc.exit

98:                                               ; preds = %87
  tail call void @llvm.memcpy.p0.p0.i64(ptr noundef nonnull align 1 dereferenceable(5) %91, ptr noundef nonnull align 1 dereferenceable(5) @.str.6, i64 5, i1 false)
  %99 = load ptr, ptr %90, align 8
  %100 = getelementptr inbounds i8, ptr %99, i64 5
  store ptr %100, ptr %90, align 8
  br label %_ZN4llvm11raw_ostreamlsEPKc.exit

101:                                              ; preds = %2
  %102 = getelementptr inbounds nuw i8, ptr %0, i64 24
  %103 = load ptr, ptr %102, align 8
  %104 = getelementptr inbounds nuw i8, ptr %0, i64 32
  %105 = load ptr, ptr %104, align 8
  %106 = ptrtoint ptr %103 to i64
  %107 = ptrtoint ptr %105 to i64
  %108 = sub i64 %106, %107
  %109 = icmp ult i64 %108, 7
  br i1 %109, label %110, label %112

110:                                              ; preds = %101
  %111 = tail call noundef nonnull align 8 dereferenceable(48) ptr @_ZN4llvm11raw_ostream5writeEPKcm(ptr noundef nonnull align 8 dereferenceable(48) %0, ptr noundef nonnull @.str.7, i64 noundef 7) #16
  br label %_ZN4llvm11raw_ostreamlsEPKc.exit

112:                                              ; preds = %101
  tail call void @llvm.memcpy.p0.p0.i64(ptr noundef nonnull align 1 dereferenceable(7) %105, ptr noundef nonnull align 1 dereferenceable(7) @.str.7, i64 7, i1 false)
  %113 = load ptr, ptr %104, align 8
  %114 = getelementptr inbounds i8, ptr %113, i64 7
  store ptr %114, ptr %104, align 8
  br label %_ZN4llvm11raw_ostreamlsEPKc.exit

115:                                              ; preds = %2
  %116 = getelementptr inbounds nuw i8, ptr %0, i64 24
  %117 = load ptr, ptr %116, align 8
  %118 = getelementptr inbounds nuw i8, ptr %0, i64 32
  %119 = load ptr, ptr %118, align 8
  %120 = ptrtoint ptr %117 to i64
  %121 = ptrtoint ptr %119 to i64
  %122 = sub i64 %120, %121
  %123 = icmp ult i64 %122, 6
  br i1 %123, label %124, label %126

124:                                              ; preds = %115
  %125 = tail call noundef nonnull align 8 dereferenceable(48) ptr @_ZN4llvm11raw_ostream5writeEPKcm(ptr noundef nonnull align 8 dereferenceable(48) %0, ptr noundef nonnull @.str.8, i64 noundef 6) #16
  br label %_ZN4llvm11raw_ostreamlsEPKc.exit

126:                                              ; preds = %115
  tail call void @llvm.memcpy.p0.p0.i64(ptr noundef nonnull align 1 dereferenceable(6) %119, ptr noundef nonnull align 1 dereferenceable(6) @.str.8, i64 6, i1 false)
  %127 = load ptr, ptr %118, align 8
  %128 = getelementptr inbounds i8, ptr %127, i64 6
  store ptr %128, ptr %118, align 8
  br label %_ZN4llvm11raw_ostreamlsEPKc.exit

129:                                              ; preds = %2
  %130 = getelementptr inbounds nuw i8, ptr %0, i64 24
  %131 = load ptr, ptr %130, align 8
  %132 = getelementptr inbounds nuw i8, ptr %0, i64 32
  %133 = load ptr, ptr %132, align 8
  %134 = ptrtoint ptr %131 to i64
  %135 = ptrtoint ptr %133 to i64
  %136 = sub i64 %134, %135
  %137 = icmp ult i64 %136, 11
  br i1 %137, label %138, label %140

138:                                              ; preds = %129
  %139 = tail call noundef nonnull align 8 dereferenceable(48) ptr @_ZN4llvm11raw_ostream5writeEPKcm(ptr noundef nonnull align 8 dereferenceable(48) %0, ptr noundef nonnull @.str.9, i64 noundef 11) #16
  br label %_ZN4llvm11raw_ostreamlsEPKc.exit

140:                                              ; preds = %129
  tail call void @llvm.memcpy.p0.p0.i64(ptr noundef nonnull align 1 dereferenceable(11) %133, ptr noundef nonnull align 1 dereferenceable(11) @.str.9, i64 11, i1 false)
  %141 = load ptr, ptr %132, align 8
  %142 = getelementptr inbounds i8, ptr %141, i64 11
  store ptr %142, ptr %132, align 8
  br label %_ZN4llvm11raw_ostreamlsEPKc.exit

143:                                              ; preds = %2
  %144 = getelementptr inbounds nuw i8, ptr %0, i64 24
  %145 = load ptr, ptr %144, align 8
  %146 = getelementptr inbounds nuw i8, ptr %0, i64 32
  %147 = load ptr, ptr %146, align 8
  %148 = ptrtoint ptr %145 to i64
  %149 = ptrtoint ptr %147 to i64
  %150 = sub i64 %148, %149
  %151 = icmp ult i64 %150, 8
  br i1 %151, label %152, label %154

152:                                              ; preds = %143
  %153 = tail call noundef nonnull align 8 dereferenceable(48) ptr @_ZN4llvm11raw_ostream5writeEPKcm(ptr noundef nonnull align 8 dereferenceable(48) %0, ptr noundef nonnull @.str.10, i64 noundef 8) #16
  br label %_ZN4llvm11raw_ostreamlsEPKc.exit

154:                                              ; preds = %143
  store i64 7236850772014821198, ptr %147, align 1
  %155 = load ptr, ptr %146, align 8
  %156 = getelementptr inbounds i8, ptr %155, i64 8
  store ptr %156, ptr %146, align 8
  br label %_ZN4llvm11raw_ostreamlsEPKc.exit

_ZN4llvm11raw_ostreamlsEPKc.exit:                 ; preds = %154, %152, %140, %138, %126, %124, %112, %110, %98, %96, %84, %82, %70, %68, %56, %54, %42, %40, %28, %26, %14, %12, %2
  ret ptr %0
}